; Function Attrs: mustprogress nounwind uwtable
define dso_local void @_ZNK4node12RealEnvStore3GetB5cxx11EPKc(ptr noalias sret(%"class.v8::Maybe") align 8 %agg.result, ptr nocapture nonnull readnone align 8 %this, ptr noundef %key) unnamed_addr #3 align 2 {
entry:
  %init_sz = alloca i64, align 8
  %val = alloca %"class.node::MaybeStackBuffer", align 8
  %ref.tmp = alloca %"class.std::__cxx11::basic_string", align 8
  %ref.tmp8 = alloca %"class.std::allocator", align 1
  tail call void @uv_mutex_lock(ptr noundef nonnull @_ZN4node11per_process13env_var_mutexE) #20
  store i64 256, ptr %init_sz, align 8
  store i64 0, ptr %val, align 8
  %capacity_.i = getelementptr inbounds i8, ptr %val, i64 8
  %buf_st_.i = getelementptr inbounds i8, ptr %val, i64 24
  store i64 256, ptr %capacity_.i, align 8
  %buf_.i = getelementptr inbounds i8, ptr %val, i64 16
  store ptr %buf_st_.i, ptr %buf_.i, align 8
  store i8 0, ptr %buf_st_.i, align 8
  %call2 = call i32 @uv_os_getenv(ptr noundef %key, ptr noundef nonnull %buf_st_.i, ptr noundef nonnull %init_sz) #20
  %cmp = icmp eq i32 %call2, -105
  br i1 %cmp, label %if.then, label %if.end

if.then:                                          ; preds = %entry
  %0 = load i64, ptr %init_sz, align 8
  call void @_ZN4node16MaybeStackBufferIcLm256EE25AllocateSufficientStorageEm(ptr noundef nonnull align 8 dereferenceable(280) %val, i64 noundef %0)
  %1 = load ptr, ptr %buf_.i, align 8
  %call4 = call i32 @uv_os_getenv(ptr noundef %key, ptr noundef %1, ptr noundef nonnull %init_sz) #20
  br label %if.end

if.end:                                           ; preds = %if.then, %entry
  %ret.0 = phi i32 [ %call4, %if.then ], [ %call2, %entry ]
  %cmp5 = icmp sgt i32 %ret.0, -1
  br i1 %cmp5, label %if.then6, label %if.end9

if.then6:                                         ; preds = %if.end
  %2 = load ptr, ptr %buf_.i, align 8
  %3 = load i64, ptr %init_sz, align 8
  call void @_ZNSaIcEC1Ev(ptr noundef nonnull align 1 dereferenceable(1) %ref.tmp8) #20
  call void @_ZNSt7__cxx1112basic_stringIcSt11char_traitsIcESaIcEEC1EPKcmRKS3_(ptr noundef nonnull align 8 dereferenceable(32) %ref.tmp, ptr noundef %2, i64 noundef %3, ptr noundef nonnull align 1 dereferenceable(1) %ref.tmp8) #20
  store i8 1, ptr %agg.result, align 8, !alias.scope !5
  %value_.i.i = getelementptr inbounds i8, ptr %agg.result, i64 8
  call void @_ZNSt7__cxx1112basic_stringIcSt11char_traitsIcESaIcEEC1EOS4_(ptr noundef nonnull align 8 dereferenceable(32) %value_.i.i, ptr noundef nonnull align 8 dereferenceable(32) %ref.tmp) #20
  call void @_ZNSt7__cxx1112basic_stringIcSt11char_traitsIcESaIcEED1Ev(ptr noundef nonnull align 8 dereferenceable(32) %ref.tmp) #20
  call void @_ZNSaIcED1Ev(ptr noundef nonnull align 1 dereferenceable(1) %ref.tmp8) #20
  br label %cleanup

if.end9:                                          ; preds = %if.end
  store i8 0, ptr %agg.result, align 8, !alias.scope !8
  %value_.i.i6 = getelementptr inbounds i8, ptr %agg.result, i64 8
  call void @_ZNSt7__cxx1112basic_stringIcSt11char_traitsIcESaIcEEC1Ev(ptr noundef nonnull align 8 dereferenceable(32) %value_.i.i6) #20
  br label %cleanup

cleanup:                                          ; preds = %if.end9, %if.then6
  %4 = load ptr, ptr %buf_.i, align 8
  %cmp.i.i.i = icmp ne ptr %4, null
  %cmp.i.i = icmp ne ptr %4, %buf_st_.i
  %5 = and i1 %cmp.i.i.i, %cmp.i.i
  br i1 %5, label %if.then.i, label %_ZN4node16MaybeStackBufferIcLm256EED2Ev.exit

if.then.i:                                        ; preds = %cleanup
  call void @free(ptr noundef nonnull %4) #20
  br label %_ZN4node16MaybeStackBufferIcLm256EED2Ev.exit

_ZN4node16MaybeStackBufferIcLm256EED2Ev.exit:     ; preds = %cleanup, %if.then.i
  call void @uv_mutex_unlock(ptr noundef nonnull @_ZN4node11per_process13env_var_mutexE) #20
  ret void
}